target datalayout = "e-m:e-p270:32:32-p271:32:32-p272:64:64-i64:64-i128:128-f80:128-n8:16:32:64-S128"
target triple = "x86_64-pc-linux-gnu"

%struct.FT_StreamRec_ = type { ptr, i64, i64, %union.FT_StreamDesc_, %union.FT_StreamDesc_, ptr, ptr, ptr, ptr, ptr }
%union.FT_StreamDesc_ = type { i64 }

; Function Attrs: nounwind uwtable
define internal i32 @read_pfb_tag(ptr noundef %0, ptr noundef %1, ptr noundef %2) #0 {
  %4 = alloca ptr, align 8
  %5 = alloca ptr, align 8
  %6 = alloca ptr, align 8
  %7 = alloca i32, align 4
  %8 = alloca i16, align 2
  %9 = alloca i64, align 8
  store ptr %0, ptr %4, align 8
  store ptr %1, ptr %5, align 8
  store ptr %2, ptr %6, align 8
  %10 = load ptr, ptr %5, align 8
  store i16 0, ptr %10, align 2
  %11 = load ptr, ptr %6, align 8
  store i64 0, ptr %11, align 8
  %12 = load ptr, ptr %4, align 8
  %13 = call zeroext i16 @FT_Stream_ReadUShort(ptr noundef %12, ptr noundef %7)
  store i16 %13, ptr %8, align 2
  %14 = load i32, ptr %7, align 4
  %15 = icmp ne i32 %14, 0
  br i1 %15, label %37, label %16

16:                                               ; preds = %3
  %17 = load i16, ptr %8, align 2
  %18 = zext i16 %17 to i32
  %19 = icmp eq i32 %18, 32769
  br i1 %19, label %24, label %20

20:                                               ; preds = %16
  %21 = load i16, ptr %8, align 2
  %22 = zext i16 %21 to i32
  %23 = icmp eq i32 %22, 32770
  br i1 %23, label %24, label %34

24:                                               ; preds = %20, %16
  %25 = load ptr, ptr %4, align 8
  %26 = call i32 @FT_Stream_ReadULongLE(ptr noundef %25, ptr noundef %7)
  %27 = zext i32 %26 to i64
  store i64 %27, ptr %9, align 8
  %28 = load i32, ptr %7, align 4
  %29 = icmp ne i32 %28, 0
  br i1 %29, label %33, label %30

30:                                               ; preds = %24
  %31 = load i64, ptr %9, align 8
  %32 = load ptr, ptr %6, align 8
  store i64 %31, ptr %32, align 8
  br label %33

33:                                               ; preds = %30, %24
  br label %34

34:                                               ; preds = %33, %20
  %35 = load i16, ptr %8, align 2
  %36 = load ptr, ptr %5, align 8
  store i16 %35, ptr %36, align 2
  br label %37

37:                                               ; preds = %34, %3
  %38 = load i32, ptr %7, align 4
  ret i32 %38
}

; Function Attrs: nounwind uwtable
define internal i32 @check_type1_format(ptr noundef %0, ptr noundef %1, i64 noundef %2) #0 {
  %4 = alloca ptr, align 8
  %5 = alloca ptr, align 8
  %6 = alloca i64, align 8
  %7 = alloca i32, align 4
  %8 = alloca i16, align 2
  %9 = alloca i64, align 8
  store ptr %0, ptr %4, align 8
  store ptr %1, ptr %5, align 8
  store i64 %2, ptr %6, align 8
  %10 = load ptr, ptr %4, align 8
  %11 = call i32 @FT_Stream_Seek(ptr noundef %10, i64 noundef 0)
  store i32 %11, ptr %7, align 4
  %12 = icmp ne i32 %11, 0
  br i1 %12, label %13, label %14

13:                                               ; preds = %3
  br label %46

14:                                               ; preds = %3
  %15 = load ptr, ptr %4, align 8
  %16 = call i32 @read_pfb_tag(ptr noundef %15, ptr noundef %8, ptr noundef %9)
  store i32 %16, ptr %7, align 4
  %17 = load i32, ptr %7, align 4
  %18 = icmp ne i32 %17, 0
  br i1 %18, label %19, label %20

19:                                               ; preds = %14
  br label %46

20:                                               ; preds = %14
  %21 = load i16, ptr %8, align 2
  %22 = zext i16 %21 to i32
  %23 = icmp ne i32 %22, 32769
  br i1 %23, label %24, label %29

24:                                               ; preds = %20
  %25 = load ptr, ptr %4, align 8
  %26 = call i32 @FT_Stream_Seek(ptr noundef %25, i64 noundef 0)
  store i32 %26, ptr %7, align 4
  %27 = icmp ne i32 %26, 0
  br i1 %27, label %28, label %29

28:                                               ; preds = %24
  br label %46

29:                                               ; preds = %24, %20
  %30 = load ptr, ptr %4, align 8
  %31 = load i64, ptr %6, align 8
  %32 = call i32 @FT_Stream_EnterFrame(ptr noundef %30, i64 noundef %31)
  store i32 %32, ptr %7, align 4
  %33 = icmp ne i32 %32, 0
  br i1 %33, label %45, label %34

34:                                               ; preds = %29
  store i32 0, ptr %7, align 4
  %35 = load ptr, ptr %4, align 8
  %36 = getelementptr inbounds %struct.FT_StreamRec_, ptr %35, i32 0, i32 8
  %37 = load ptr, ptr %36, align 8
  %38 = load ptr, ptr %5, align 8
  %39 = load i64, ptr %6, align 8
  %40 = call i32 @memcmp(ptr noundef %37, ptr noundef %38, i64 noundef %39) #5
  %41 = icmp ne i32 %40, 0
  br i1 %41, label %42, label %43

42:                                               ; preds = %34
  store i32 2, ptr %7, align 4
  br label %43

43:                                               ; preds = %42, %34
  %44 = load ptr, ptr %4, align 8
  call void @FT_Stream_ExitFrame(ptr noundef %44)
  br label %45

45:                                               ; preds = %43, %29
  br label %46

46:                                               ; preds = %45, %28, %19, %13
  %47 = load i32, ptr %7, align 4
  ret i32 %47
}