; Function Attrs: nounwind uwtable
define internal fastcc i32 @check_type1_format(ptr noundef %0, ptr nocapture noundef readonly %1, i64 noundef %2) unnamed_addr #2 {
  %4 = alloca i32, align 4
  %5 = tail call i32 @FT_Stream_Seek(ptr noundef %0, i64 noundef 0) #16
  %.not = icmp eq i32 %5, 0
  br i1 %.not, label %6, label %23

6:                                                ; preds = %3
  call void @llvm.lifetime.start.p0(i64 4, ptr nonnull %4)
  %7 = call zeroext i16 @FT_Stream_ReadUShort(ptr noundef %0, ptr noundef nonnull %4) #16
  %8 = load i32, ptr %4, align 4
  %.not.i = icmp eq i32 %8, 0
  br i1 %.not.i, label %9, label %read_pfb_tag.exit

9:                                                ; preds = %6
  %10 = add i16 %7, 32767
  %or.cond.i = icmp ult i16 %10, 2
  br i1 %or.cond.i, label %11, label %.thread

.thread:                                          ; preds = %9
  call void @llvm.lifetime.end.p0(i64 4, ptr nonnull %4)
  br label %16

11:                                               ; preds = %9
  %12 = call i32 @FT_Stream_ReadULongLE(ptr noundef %0, ptr noundef nonnull %4) #16
  %13 = load i32, ptr %4, align 4
  %.not11.i = icmp eq i32 %13, 0
  br i1 %.not11.i, label %15, label %read_pfb_tag.exit

read_pfb_tag.exit:                                ; preds = %11, %6
  %14 = phi i32 [ %8, %6 ], [ %13, %11 ]
  call void @llvm.lifetime.end.p0(i64 4, ptr nonnull %4)
  br label %23

15:                                               ; preds = %11
  call void @llvm.lifetime.end.p0(i64 4, ptr nonnull %4)
  %.not15 = icmp eq i16 %7, -32767
  br i1 %.not15, label %18, label %16

16:                                               ; preds = %.thread, %15
  %17 = call i32 @FT_Stream_Seek(ptr noundef %0, i64 noundef 0) #16
  %.not16 = icmp eq i32 %17, 0
  br i1 %.not16, label %18, label %23

18:                                               ; preds = %16, %15
  %19 = call i32 @FT_Stream_EnterFrame(ptr noundef %0, i64 noundef %2) #16
  %.not17 = icmp eq i32 %19, 0
  br i1 %.not17, label %20, label %23

20:                                               ; preds = %18
  %21 = getelementptr inbounds i8, ptr %0, i64 64
  %22 = load ptr, ptr %21, align 8
  %bcmp = call i32 @bcmp(ptr %22, ptr %1, i64 %2)
  %.not18 = icmp eq i32 %bcmp, 0
  %spec.store.select = select i1 %.not18, i32 0, i32 2
  call void @FT_Stream_ExitFrame(ptr noundef %0) #16
  br label %23

23:                                               ; preds = %read_pfb_tag.exit, %18, %20, %16, %3
  %.0 = phi i32 [ %5, %3 ], [ %14, %read_pfb_tag.exit ], [ %17, %16 ], [ %19, %18 ], [ %spec.store.select, %20 ]
  ret i32 %.0
}